target datalayout = "e-m:e-p270:32:32-p271:32:32-p272:64:64-i64:64-i128:128-f80:128-n8:16:32:64-S128"
target triple = "x86_64-unknown-linux-gnu"

%struct.llama_context = type { %struct.llama_cparams, ptr, %struct.llama_kv_cache, %"class.std::mersenne_twister_engine", i8, i64, i64, i64, i64, i64, i32, i32, i32, %"class.std::vector.107", i8, %"class.std::vector.107", %"class.std::vector.112", %struct.llama_buffer, %struct.llama_buffer, ptr }
%struct.llama_cparams = type { i32, i32, i32, i32, float, float, i32, float, float, float, float, i8, i8 }
%struct.llama_kv_cache = type { i8, i32, i32, i32, i32, %"class.std::vector.97", %"class.std::vector.102", %"class.std::vector.102", ptr, %struct.llama_buffer }
%"class.std::vector.97" = type { %"struct.std::_Vector_base.98" }
%"struct.std::_Vector_base.98" = type { %"struct.std::_Vector_base<llama_kv_cell, std::allocator<llama_kv_cell>>::_Vector_impl" }
%"struct.std::_Vector_base<llama_kv_cell, std::allocator<llama_kv_cell>>::_Vector_impl" = type { %"struct.std::_Vector_base<llama_kv_cell, std::allocator<llama_kv_cell>>::_Vector_impl_data" }
%"struct.std::_Vector_base<llama_kv_cell, std::allocator<llama_kv_cell>>::_Vector_impl_data" = type { ptr, ptr, ptr }
%"class.std::vector.102" = type { %"struct.std::_Vector_base.103" }
%"struct.std::_Vector_base.103" = type { %"struct.std::_Vector_base<ggml_tensor *, std::allocator<ggml_tensor *>>::_Vector_impl" }
%"struct.std::_Vector_base<ggml_tensor *, std::allocator<ggml_tensor *>>::_Vector_impl" = type { %"struct.std::_Vector_base<ggml_tensor *, std::allocator<ggml_tensor *>>::_Vector_impl_data" }
%"struct.std::_Vector_base<ggml_tensor *, std::allocator<ggml_tensor *>>::_Vector_impl_data" = type { ptr, ptr, ptr }
%"class.std::mersenne_twister_engine" = type { [624 x i64], i64 }
%"class.std::vector.107" = type { %"struct.std::_Vector_base.108" }
%"struct.std::_Vector_base.108" = type { %"struct.std::_Vector_base<float, std::allocator<float>>::_Vector_impl" }
%"struct.std::_Vector_base<float, std::allocator<float>>::_Vector_impl" = type { %"struct.std::_Vector_base<float, std::allocator<float>>::_Vector_impl_data" }
%"struct.std::_Vector_base<float, std::allocator<float>>::_Vector_impl_data" = type { ptr, ptr, ptr }
%"class.std::vector.112" = type { %"struct.std::_Vector_base.113" }
%"struct.std::_Vector_base.113" = type { %"struct.std::_Vector_base<unsigned char, std::allocator<unsigned char>>::_Vector_impl" }
%"struct.std::_Vector_base<unsigned char, std::allocator<unsigned char>>::_Vector_impl" = type { %"struct.std::_Vector_base<unsigned char, std::allocator<unsigned char>>::_Vector_impl_data" }
%"struct.std::_Vector_base<unsigned char, std::allocator<unsigned char>>::_Vector_impl_data" = type { ptr, ptr, ptr }
%struct.llama_buffer = type <{ ptr, i64, i8, [7 x i8] }>
%struct.llama_batch = type { i32, ptr, ptr, ptr, ptr, ptr, ptr, i32, i32, i32 }

@.str.202 = private unnamed_addr constant [32 x i8] c"%s: failed to decode, ret = %d\0A\00", align 1
@__func__.llama_eval = private unnamed_addr constant [11 x i8] c"llama_eval\00", align 1

; Function Attrs: mustprogress nounwind uwtable
define void @llama_batch_get_one(ptr noalias sret(%struct.llama_batch) align 8 %agg.result, ptr noundef %tokens, i32 noundef %n_tokens, i32 noundef %pos_0, i32 noundef %seq_id) #1 {
entry:
  %tokens.addr = alloca ptr, align 8
  %n_tokens.addr = alloca i32, align 4
  %pos_0.addr = alloca i32, align 4
  %seq_id.addr = alloca i32, align 4
  store ptr %tokens, ptr %tokens.addr, align 8
  store i32 %n_tokens, ptr %n_tokens.addr, align 4
  store i32 %pos_0, ptr %pos_0.addr, align 4
  store i32 %seq_id, ptr %seq_id.addr, align 4
  %n_tokens1 = getelementptr inbounds %struct.llama_batch, ptr %agg.result, i32 0, i32 0
  %0 = load i32, ptr %n_tokens.addr, align 4
  store i32 %0, ptr %n_tokens1, align 8
  %token = getelementptr inbounds %struct.llama_batch, ptr %agg.result, i32 0, i32 1
  %1 = load ptr, ptr %tokens.addr, align 8
  store ptr %1, ptr %token, align 8
  %embd = getelementptr inbounds %struct.llama_batch, ptr %agg.result, i32 0, i32 2
  store ptr null, ptr %embd, align 8
  %pos = getelementptr inbounds %struct.llama_batch, ptr %agg.result, i32 0, i32 3
  store ptr null, ptr %pos, align 8
  %n_seq_id = getelementptr inbounds %struct.llama_batch, ptr %agg.result, i32 0, i32 4
  store ptr null, ptr %n_seq_id, align 8
  %seq_id2 = getelementptr inbounds %struct.llama_batch, ptr %agg.result, i32 0, i32 5
  store ptr null, ptr %seq_id2, align 8
  %logits = getelementptr inbounds %struct.llama_batch, ptr %agg.result, i32 0, i32 6
  store ptr null, ptr %logits, align 8
  %all_pos_0 = getelementptr inbounds %struct.llama_batch, ptr %agg.result, i32 0, i32 7
  %2 = load i32, ptr %pos_0.addr, align 4
  store i32 %2, ptr %all_pos_0, align 8
  %all_pos_1 = getelementptr inbounds %struct.llama_batch, ptr %agg.result, i32 0, i32 8
  store i32 1, ptr %all_pos_1, align 4
  %all_seq_id = getelementptr inbounds %struct.llama_batch, ptr %agg.result, i32 0, i32 9
  %3 = load i32, ptr %seq_id.addr, align 4
  store i32 %3, ptr %all_seq_id, align 8
  ret void
}

; Function Attrs: mustprogress uwtable
define i32 @llama_eval(ptr noundef %ctx, ptr noundef %tokens, i32 noundef %n_tokens, i32 noundef %n_past) #2 {
entry:
  %ctx.addr = alloca ptr, align 8
  %tokens.addr = alloca ptr, align 8
  %n_tokens.addr = alloca i32, align 4
  %n_past.addr = alloca i32, align 4
  %ret = alloca i32, align 4
  %agg.tmp = alloca %struct.llama_batch, align 8
  store ptr %ctx, ptr %ctx.addr, align 8
  store ptr %tokens, ptr %tokens.addr, align 8
  store i32 %n_tokens, ptr %n_tokens.addr, align 4
  store i32 %n_past, ptr %n_past.addr, align 4
  %0 = load ptr, ptr %ctx.addr, align 8
  %kv_self = getelementptr inbounds %struct.llama_context, ptr %0, i32 0, i32 2
  %1 = load i32, ptr %n_past.addr, align 4
  call void @_ZL21llama_kv_cache_seq_rmR14llama_kv_cacheiii(ptr noundef nonnull align 8 dereferenceable(128) %kv_self, i32 noundef -1, i32 noundef %1, i32 noundef -1)
  %2 = load ptr, ptr %ctx.addr, align 8
  %3 = load ptr, ptr %tokens.addr, align 8
  %4 = load i32, ptr %n_tokens.addr, align 4
  %5 = load i32, ptr %n_past.addr, align 4
  call void @llama_batch_get_one(ptr sret(%struct.llama_batch) align 8 %agg.tmp, ptr noundef %3, i32 noundef %4, i32 noundef %5, i32 noundef 0)
  %call = call noundef i32 @_ZL21llama_decode_internalR13llama_context11llama_batch(ptr noundef nonnull align 8 dereferenceable(5384) %2, ptr noundef byval(%struct.llama_batch) align 8 %agg.tmp)
  store i32 %call, ptr %ret, align 4
  %6 = load i32, ptr %ret, align 4
  %cmp = icmp slt i32 %6, 0
  br i1 %cmp, label %if.then, label %if.end

if.then:                                          ; preds = %entry
  %7 = load i32, ptr %ret, align 4
  call void (i32, ptr, ...) @_ZL18llama_log_internal14ggml_log_levelPKcz(i32 noundef 2, ptr noundef @.str.202, ptr noundef @__func__.llama_eval, i32 noundef %7)
  br label %if.end

if.end:                                           ; preds = %if.then, %entry
  %8 = load i32, ptr %ret, align 4
  ret i32 %8
}