; Function Attrs: mustprogress uwtable
define noundef i32 @llama_eval(ptr noundef %ctx, ptr noundef %tokens, i32 noundef %n_tokens, i32 noundef %n_past) local_unnamed_addr #2 {
entry:
  %agg.tmp = alloca %struct.llama_batch, align 8
  %kv_self = getelementptr inbounds i8, ptr %ctx, i64 56
  tail call fastcc void @_ZL21llama_kv_cache_seq_rmR14llama_kv_cacheiii(ptr noundef nonnull align 8 dereferenceable(128) %kv_self, i32 noundef -1, i32 noundef %n_past, i32 noundef -1)
  store i32 %n_tokens, ptr %agg.tmp, align 8, !alias.scope !194
  %token.i = getelementptr inbounds i8, ptr %agg.tmp, i64 8
  store ptr %tokens, ptr %token.i, align 8, !alias.scope !194
  %embd.i = getelementptr inbounds i8, ptr %agg.tmp, i64 16
  %all_pos_0.i = getelementptr inbounds i8, ptr %agg.tmp, i64 56
  call void @llvm.memset.p0.i64(ptr noundef nonnull align 8 dereferenceable(40) %embd.i, i8 0, i64 40, i1 false), !alias.scope !194
  store i32 %n_past, ptr %all_pos_0.i, align 8, !alias.scope !194
  %all_pos_1.i = getelementptr inbounds i8, ptr %agg.tmp, i64 60
  store i32 1, ptr %all_pos_1.i, align 4, !alias.scope !194
  %all_seq_id.i = getelementptr inbounds i8, ptr %agg.tmp, i64 64
  store i32 0, ptr %all_seq_id.i, align 8, !alias.scope !194
  %call = tail call fastcc noundef i32 @_ZL21llama_decode_internalR13llama_context11llama_batch(ptr noundef nonnull align 8 dereferenceable(5384) %ctx, ptr noundef nonnull byval(%struct.llama_batch) align 8 %agg.tmp), !range !197
  %cmp = icmp slt i32 %call, 0
  br i1 %cmp, label %if.then, label %if.end

if.then:                                          ; preds = %entry
  tail call void (i32, ptr, ...) @_ZL18llama_log_internal14ggml_log_levelPKcz(i32 noundef 2, ptr noundef nonnull @.str.202, ptr noundef nonnull @__func__.llama_eval, i32 noundef -1)
  br label %if.end

if.end:                                           ; preds = %if.then, %entry
  ret i32 %call
}